; Function Attrs: nounwind uwtable
define ptr @l_Std_Sat_AIG_toCNF_Cache_addGate___rarg(ptr noundef %0, ptr noundef readnone captures(none) %1, ptr noundef readnone captures(none) %2, ptr noundef %3, ptr noundef readnone captures(none) %4, ptr noundef readnone captures(none) %5, ptr noundef readnone captures(none) %6, ptr noundef readnone captures(none) %7) local_unnamed_addr #0 {
  %9 = ptrtoint ptr %3 to i64
  %10 = lshr i64 %9, 1
  %.val.i.i.i = load i32, ptr %0, align 4, !tbaa !4
  %11 = icmp eq i32 %.val.i.i.i, 1
  br i1 %11, label %lean_ensure_exclusive_array.exit.i.i, label %12

12:                                               ; preds = %8
  %13 = tail call ptr @lean_copy_expand_array(ptr noundef nonnull %0, i1 noundef zeroext false) #3
  br label %lean_ensure_exclusive_array.exit.i.i

lean_ensure_exclusive_array.exit.i.i:             ; preds = %12, %8
  %.0.i.i.i = phi ptr [ %13, %12 ], [ %0, %8 ]
  %14 = getelementptr inbounds nuw i8, ptr %.0.i.i.i, i64 24
  %15 = getelementptr inbounds nuw ptr, ptr %14, i64 %10
  %16 = load ptr, ptr %15, align 8, !tbaa !9
  %17 = ptrtoint ptr %16 to i64
  %18 = and i64 %17, 1
  %.not.i.i = icmp eq i64 %18, 0
  br i1 %.not.i.i, label %19, label %lean_array_fset.exit

19:                                               ; preds = %lean_ensure_exclusive_array.exit.i.i
  %20 = load i32, ptr %16, align 4, !tbaa !4
  %21 = icmp sgt i32 %20, 1
  br i1 %21, label %22, label %24, !prof !13

22:                                               ; preds = %19
  %23 = add nsw i32 %20, -1
  store i32 %23, ptr %16, align 4, !tbaa !4
  br label %lean_array_fset.exit

24:                                               ; preds = %19
  %.not.i.i.i = icmp eq i32 %20, 0
  br i1 %.not.i.i.i, label %lean_array_fset.exit, label %25

25:                                               ; preds = %24
  tail call void @lean_dec_ref_cold(ptr noundef nonnull %16) #3
  br label %lean_array_fset.exit

lean_array_fset.exit:                             ; preds = %lean_ensure_exclusive_array.exit.i.i, %22, %24, %25
  store ptr inttoptr (i64 3 to ptr), ptr %15, align 8, !tbaa !9
  ret ptr %.0.i.i.i
}